; ModuleID = '57/2363.c'
source_filename = "57/2363.c"
target datalayout = "e-m:e-p270:32:32-p271:32:32-p272:64:64-i64:64-f80:128-n8:16:32:64-S128"
target triple = "x86_64-pc-linux-gnu"

@.str = private unnamed_addr constant [3 x i8] c"%d\00", align 1
@.str.1 = private unnamed_addr constant [3 x i8] c"%s\00", align 1
@.str.2 = private unnamed_addr constant [4 x i8] c"%s\0A\00", align 1

; Function Attrs: noinline nounwind uwtable
define dso_local i32 @main() #0 {
  %1 = alloca i32, align 4
  %2 = alloca i32, align 4
  %3 = alloca i32, align 4
  %4 = alloca i32, align 4
  %5 = alloca [10 x i8], align 1
  store i32 0, i32* %1, align 4
  %6 = call i32 (i8*, ...) @__isoc99_scanf(i8* getelementptr inbounds ([3 x i8], [3 x i8]* @.str, i64 0, i64 0), i32* %2)
  store i32 0, i32* %3, align 4
  br label %7

7:                                                ; preds = %54, %0
  %8 = load i32, i32* %3, align 4
  %9 = load i32, i32* %2, align 4
  %10 = icmp slt i32 %8, %9
  br i1 %10, label %11, label %57

11:                                               ; preds = %7
  %12 = getelementptr inbounds [10 x i8], [10 x i8]* %5, i64 0, i64 0
  %13 = call i32 (i8*, ...) @__isoc99_scanf(i8* getelementptr inbounds ([3 x i8], [3 x i8]* @.str.1, i64 0, i64 0), i8* %12)
  store i32 0, i32* %4, align 4
  br label %14

14:                                               ; preds = %22, %11
  %15 = load i32, i32* %4, align 4
  %16 = sext i32 %15 to i64
  %17 = getelementptr inbounds [10 x i8], [10 x i8]* %5, i64 0, i64 %16
  %18 = load i8, i8* %17, align 1
  %19 = sext i8 %18 to i32
  %20 = icmp ne i32 %19, 0
  br i1 %20, label %21, label %25

21:                                               ; preds = %14
  br label %22

22:                                               ; preds = %21
  %23 = load i32, i32* %4, align 4
  %24 = add nsw i32 %23, 1
  store i32 %24, i32* %4, align 4
  br label %14

25:                                               ; preds = %14
  %26 = load i32, i32* %4, align 4
  %27 = sub nsw i32 %26, 1
  %28 = sext i32 %27 to i64
  %29 = getelementptr inbounds [10 x i8], [10 x i8]* %5, i64 0, i64 %28
  %30 = load i8, i8* %29, align 1
  %31 = sext i8 %30 to i32
  %32 = icmp eq i32 %31, 114
  br i1 %32, label %41, label %33

33:                                               ; preds = %25
  %34 = load i32, i32* %4, align 4
  %35 = sub nsw i32 %34, 1
  %36 = sext i32 %35 to i64
  %37 = getelementptr inbounds [10 x i8], [10 x i8]* %5, i64 0, i64 %36
  %38 = load i8, i8* %37, align 1
  %39 = sext i8 %38 to i32
  %40 = icmp eq i32 %39, 121
  br i1 %40, label %41, label %46

41:                                               ; preds = %33, %25
  %42 = load i32, i32* %4, align 4
  %43 = sub nsw i32 %42, 2
  %44 = sext i32 %43 to i64
  %45 = getelementptr inbounds [10 x i8], [10 x i8]* %5, i64 0, i64 %44
  store i8 0, i8* %45, align 1
  br label %51

46:                                               ; preds = %33
  %47 = load i32, i32* %4, align 4
  %48 = sub nsw i32 %47, 3
  %49 = sext i32 %48 to i64
  %50 = getelementptr inbounds [10 x i8], [10 x i8]* %5, i64 0, i64 %49
  store i8 0, i8* %50, align 1
  br label %51

51:                                               ; preds = %46, %41
  %52 = getelementptr inbounds [10 x i8], [10 x i8]* %5, i64 0, i64 0
  %53 = call i32 (i8*, ...) @printf(i8* getelementptr inbounds ([4 x i8], [4 x i8]* @.str.2, i64 0, i64 0), i8* %52)
  br label %54

54:                                               ; preds = %51
  %55 = load i32, i32* %3, align 4
  %56 = add nsw i32 %55, 1
  store i32 %56, i32* %3, align 4
  br label %7

57:                                               ; preds = %7
  ret i32 0
}

declare dso_local i32 @__isoc99_scanf(i8*, ...) #1

declare dso_local i32 @printf(i8*, ...) #1


!llvm.module.flags = !{!0}
!llvm.ident = !{!1}

!0 = !{i32 1, !"wchar_size", i32 4}
!1 = !{!"clang version 10.0.0-4ubuntu1 "}
